target datalayout = "e-m:e-p270:32:32-p271:32:32-p272:64:64-i64:64-i128:128-f80:128-n8:16:32:64-S128"
target triple = "x86_64-pc-linux-gnu"

%struct.SDL_WindowData = type { ptr, ptr, ptr, ptr, ptr, ptr, ptr, %union.anon, i32, i32, i32, i32, ptr, ptr, ptr, ptr, ptr, ptr, ptr, ptr, ptr, ptr, ptr, ptr, ptr, ptr, %struct.SDL_AtomicInt, ptr, i32, ptr, double, ptr, i32, i32, i32, i32, %struct.anon.3, %struct.anon.4, %struct.anon.5, %struct.anon.6, %struct.anon.7, %struct.anon.8, %struct.anon.9, i32, i32, i32, i64, i32, i32, i8, i8, i8, i8, i8, i8, i8, i8, i8, i8, i8, i8, i8, i8, i32, %struct.wl_list }
%union.anon = type { %struct.anon }
%struct.anon = type { ptr, %union.anon.0, i8 }
%union.anon.0 = type { %struct.anon.2 }
%struct.anon.2 = type { ptr, ptr }
%struct.SDL_AtomicInt = type { i32 }
%struct.anon.3 = type { double, double }
%struct.anon.4 = type { i32, i32, i32, i32 }
%struct.anon.5 = type { i32, i32, i32, i32 }
%struct.anon.6 = type { i32, i32 }
%struct.anon.7 = type { i32, i32 }
%struct.anon.8 = type { i32, i32 }
%struct.anon.9 = type { i32, i32, i8 }
%struct.wl_list = type { ptr, ptr }
%struct.SDL_HDROutputProperties = type { float, float }

; Function Attrs: nounwind uwtable
define internal void @frog_preferred_metadata_handler(ptr noundef %0, ptr noundef %1, i32 noundef %2, i32 noundef %3, i32 noundef %4, i32 noundef %5, i32 noundef %6, i32 noundef %7, i32 noundef %8, i32 noundef %9, i32 noundef %10, i32 noundef %11, i32 noundef %12, i32 noundef %13) #0 {
  %15 = alloca ptr, align 8
  %16 = alloca ptr, align 8
  %17 = alloca i32, align 4
  %18 = alloca i32, align 4
  %19 = alloca i32, align 4
  %20 = alloca i32, align 4
  %21 = alloca i32, align 4
  %22 = alloca i32, align 4
  %23 = alloca i32, align 4
  %24 = alloca i32, align 4
  %25 = alloca i32, align 4
  %26 = alloca i32, align 4
  %27 = alloca i32, align 4
  %28 = alloca i32, align 4
  %29 = alloca ptr, align 8
  %30 = alloca %struct.SDL_HDROutputProperties, align 4
  store ptr %0, ptr %15, align 8
  store ptr %1, ptr %16, align 8
  store i32 %2, ptr %17, align 4
  store i32 %3, ptr %18, align 4
  store i32 %4, ptr %19, align 4
  store i32 %5, ptr %20, align 4
  store i32 %6, ptr %21, align 4
  store i32 %7, ptr %22, align 4
  store i32 %8, ptr %23, align 4
  store i32 %9, ptr %24, align 4
  store i32 %10, ptr %25, align 4
  store i32 %11, ptr %26, align 4
  store i32 %12, ptr %27, align 4
  store i32 %13, ptr %28, align 4
  call void @llvm.lifetime.start.p0(i64 8, ptr %29) #10
  %31 = load ptr, ptr %15, align 8
  store ptr %31, ptr %29, align 8
  call void @llvm.lifetime.start.p0(i64 8, ptr %30) #10
  call void @llvm.memset.p0.i64(ptr align 4 %30, i8 0, i64 8, i1 false)
  %32 = load i32, ptr %17, align 4
  switch i32 %32, label %44 [
    i32 3, label %33
    i32 4, label %38
    i32 0, label %43
    i32 1, label %43
    i32 2, label %43
  ]

33:                                               ; preds = %14
  %34 = load i32, ptr %26, align 4
  %35 = uitofp i32 %34 to float
  %36 = fdiv float %35, 2.030000e+02
  %37 = getelementptr inbounds nuw %struct.SDL_HDROutputProperties, ptr %30, i32 0, i32 1
  store float %36, ptr %37, align 4
  br label %46

38:                                               ; preds = %14
  %39 = load i32, ptr %26, align 4
  %40 = uitofp i32 %39 to float
  %41 = fdiv float %40, 8.000000e+01
  %42 = getelementptr inbounds nuw %struct.SDL_HDROutputProperties, ptr %30, i32 0, i32 1
  store float %41, ptr %42, align 4
  br label %46

43:                                               ; preds = %14, %14, %14
  br label %44

44:                                               ; preds = %14, %43
  %45 = getelementptr inbounds nuw %struct.SDL_HDROutputProperties, ptr %30, i32 0, i32 1
  store float 1.000000e+00, ptr %45, align 4
  br label %46

46:                                               ; preds = %44, %38, %33
  %47 = getelementptr inbounds nuw %struct.SDL_HDROutputProperties, ptr %30, i32 0, i32 0
  store float 1.000000e+00, ptr %47, align 4
  %48 = load ptr, ptr %29, align 8
  %49 = getelementptr inbounds nuw %struct.SDL_WindowData, ptr %48, i32 0, i32 0
  %50 = load ptr, ptr %49, align 8
  call void @SDL_SetWindowHDRProperties(ptr noundef %50, ptr noundef %30, i1 noundef zeroext true)
  call void @llvm.lifetime.end.p0(i64 8, ptr %30) #10
  call void @llvm.lifetime.end.p0(i64 8, ptr %29) #10
  ret void
}