; Function Attrs: nounwind uwtable
define internal void @frog_preferred_metadata_handler(ptr noundef readonly captures(none) %0, ptr readnone captures(none) %1, i32 noundef %2, i32 %3, i32 %4, i32 %5, i32 %6, i32 %7, i32 %8, i32 %9, i32 %10, i32 noundef %11, i32 %12, i32 %13) #0 {
  %15 = alloca %struct.SDL_HDROutputProperties, align 8
  call void @llvm.lifetime.start.p0(i64 8, ptr nonnull %15) #15
  store i64 0, ptr %15, align 8
  switch i32 %2, label %22 [
    i32 3, label %16
    i32 4, label %19
  ]

16:                                               ; preds = %14
  %17 = uitofp i32 %11 to float
  %18 = fdiv float %17, 2.030000e+02
  br label %22

19:                                               ; preds = %14
  %20 = uitofp i32 %11 to float
  %21 = fdiv float %20, 8.000000e+01
  br label %22

22:                                               ; preds = %14, %19, %16
  %.sink = phi float [ %21, %19 ], [ %18, %16 ], [ 1.000000e+00, %14 ]
  %23 = getelementptr inbounds nuw i8, ptr %15, i64 4
  store float %.sink, ptr %23, align 4
  store float 1.000000e+00, ptr %15, align 8
  %24 = load ptr, ptr %0, align 8
  call void @SDL_SetWindowHDRProperties(ptr noundef %24, ptr noundef nonnull %15, i1 noundef zeroext true) #15
  call void @llvm.lifetime.end.p0(i64 8, ptr nonnull %15) #15
  ret void
}